target datalayout = "e-m:e-p270:32:32-p271:32:32-p272:64:64-i64:64-i128:128-f80:128-n8:16:32:64-S128"
target triple = "x86_64-pc-linux-gnu"

%struct.block_tq2_0 = type { [64 x i8], i16 }
%union.anon.10 = type { float }
%union.anon.11 = type { i32 }

; Function Attrs: inlinehint nounwind uwtable
define internal float @fp32_from_bits(i32 noundef %0) #3 {
  %2 = alloca i32, align 4
  %3 = alloca %union.anon.11, align 4
  store i32 %0, ptr %2, align 4, !tbaa !11
  call void @llvm.lifetime.start.p0(i64 4, ptr %3) #10
  %4 = load i32, ptr %2, align 4, !tbaa !11
  store i32 %4, ptr %3, align 4, !tbaa !20
  %5 = load float, ptr %3, align 4, !tbaa !20
  call void @llvm.lifetime.end.p0(i64 4, ptr %3) #10
  ret float %5
}

; Function Attrs: inlinehint nounwind uwtable
define internal i32 @fp32_to_bits(float noundef %0) #3 {
  %2 = alloca float, align 4
  %3 = alloca %union.anon.10, align 4
  store float %0, ptr %2, align 4, !tbaa !13
  call void @llvm.lifetime.start.p0(i64 4, ptr %3) #10
  %4 = load float, ptr %2, align 4, !tbaa !13
  store float %4, ptr %3, align 4, !tbaa !20
  %5 = load i32, ptr %3, align 4, !tbaa !20
  call void @llvm.lifetime.end.p0(i64 4, ptr %3) #10
  ret i32 %5
}

; Function Attrs: inlinehint nounwind uwtable
define internal zeroext i16 @ggml_compute_fp32_to_fp16(float noundef %0) #3 {
  %2 = alloca float, align 4
  %3 = alloca float, align 4
  %4 = alloca float, align 4
  %5 = alloca float, align 4
  %6 = alloca i32, align 4
  %7 = alloca i32, align 4
  %8 = alloca i32, align 4
  %9 = alloca i32, align 4
  %10 = alloca i32, align 4
  %11 = alloca i32, align 4
  %12 = alloca i32, align 4
  %13 = alloca i32, align 4
  store float %0, ptr %2, align 4, !tbaa !13
  call void @llvm.lifetime.start.p0(i64 4, ptr %3) #10
  store float 0x46F0000000000000, ptr %3, align 4, !tbaa !13
  call void @llvm.lifetime.start.p0(i64 4, ptr %4) #10
  store float 0x3910000000000000, ptr %4, align 4, !tbaa !13
  call void @llvm.lifetime.start.p0(i64 4, ptr %5) #10
  %14 = load float, ptr %2, align 4, !tbaa !13
  %15 = call float @llvm.fabs.f32(float %14)
  %16 = fmul float %15, 0x46F0000000000000
  %17 = fmul float %16, 0x3910000000000000
  store float %17, ptr %5, align 4, !tbaa !13
  call void @llvm.lifetime.start.p0(i64 4, ptr %6) #10
  %18 = load float, ptr %2, align 4, !tbaa !13
  %19 = call i32 @fp32_to_bits(float noundef %18)
  store i32 %19, ptr %6, align 4, !tbaa !11
  call void @llvm.lifetime.start.p0(i64 4, ptr %7) #10
  %20 = load i32, ptr %6, align 4, !tbaa !11
  %21 = load i32, ptr %6, align 4, !tbaa !11
  %22 = add i32 %20, %21
  store i32 %22, ptr %7, align 4, !tbaa !11
  call void @llvm.lifetime.start.p0(i64 4, ptr %8) #10
  %23 = load i32, ptr %6, align 4, !tbaa !11
  %24 = and i32 %23, -2147483648
  store i32 %24, ptr %8, align 4, !tbaa !11
  call void @llvm.lifetime.start.p0(i64 4, ptr %9) #10
  %25 = load i32, ptr %7, align 4, !tbaa !11
  %26 = and i32 %25, -16777216
  store i32 %26, ptr %9, align 4, !tbaa !11
  %27 = load i32, ptr %9, align 4, !tbaa !11
  %28 = icmp ult i32 %27, 1895825408
  br i1 %28, label %29, label %30

29:                                               ; preds = %1
  store i32 1895825408, ptr %9, align 4, !tbaa !11
  br label %30

30:                                               ; preds = %29, %1
  %31 = load i32, ptr %9, align 4, !tbaa !11
  %32 = lshr i32 %31, 1
  %33 = add i32 %32, 125829120
  %34 = call float @fp32_from_bits(i32 noundef %33)
  %35 = load float, ptr %5, align 4, !tbaa !13
  %36 = fadd float %34, %35
  store float %36, ptr %5, align 4, !tbaa !13
  call void @llvm.lifetime.start.p0(i64 4, ptr %10) #10
  %37 = load float, ptr %5, align 4, !tbaa !13
  %38 = call i32 @fp32_to_bits(float noundef %37)
  store i32 %38, ptr %10, align 4, !tbaa !11
  call void @llvm.lifetime.start.p0(i64 4, ptr %11) #10
  %39 = load i32, ptr %10, align 4, !tbaa !11
  %40 = lshr i32 %39, 13
  %41 = and i32 %40, 31744
  store i32 %41, ptr %11, align 4, !tbaa !11
  call void @llvm.lifetime.start.p0(i64 4, ptr %12) #10
  %42 = load i32, ptr %10, align 4, !tbaa !11
  %43 = and i32 %42, 4095
  store i32 %43, ptr %12, align 4, !tbaa !11
  call void @llvm.lifetime.start.p0(i64 4, ptr %13) #10
  %44 = load i32, ptr %11, align 4, !tbaa !11
  %45 = load i32, ptr %12, align 4, !tbaa !11
  %46 = add i32 %44, %45
  store i32 %46, ptr %13, align 4, !tbaa !11
  %47 = load i32, ptr %8, align 4, !tbaa !11
  %48 = lshr i32 %47, 16
  %49 = load i32, ptr %7, align 4, !tbaa !11
  %50 = icmp ugt i32 %49, -16777216
  br i1 %50, label %51, label %52

51:                                               ; preds = %30
  br label %54

52:                                               ; preds = %30
  %53 = load i32, ptr %13, align 4, !tbaa !11
  br label %54

54:                                               ; preds = %52, %51
  %55 = phi i32 [ 32256, %51 ], [ %53, %52 ]
  %56 = or i32 %48, %55
  %57 = trunc i32 %56 to i16
  call void @llvm.lifetime.end.p0(i64 4, ptr %13) #10
  call void @llvm.lifetime.end.p0(i64 4, ptr %12) #10
  call void @llvm.lifetime.end.p0(i64 4, ptr %11) #10
  call void @llvm.lifetime.end.p0(i64 4, ptr %10) #10
  call void @llvm.lifetime.end.p0(i64 4, ptr %9) #10
  call void @llvm.lifetime.end.p0(i64 4, ptr %8) #10
  call void @llvm.lifetime.end.p0(i64 4, ptr %7) #10
  call void @llvm.lifetime.end.p0(i64 4, ptr %6) #10
  call void @llvm.lifetime.end.p0(i64 4, ptr %5) #10
  call void @llvm.lifetime.end.p0(i64 4, ptr %4) #10
  call void @llvm.lifetime.end.p0(i64 4, ptr %3) #10
  ret i16 %57
}

; Function Attrs: nounwind uwtable
define void @quantize_row_tq2_0_ref(ptr noalias noundef %0, ptr noalias noundef %1, i64 noundef %2) #0 {
  %4 = alloca ptr, align 8
  %5 = alloca ptr, align 8
  %6 = alloca i64, align 8
  %7 = alloca i64, align 8
  %8 = alloca i64, align 8
  %9 = alloca i32, align 4
  %10 = alloca float, align 4
  %11 = alloca i32, align 4
  %12 = alloca float, align 4
  %13 = alloca float, align 4
  %14 = alloca float, align 4
  %15 = alloca i64, align 8
  %16 = alloca i64, align 8
  %17 = alloca i8, align 1
  %18 = alloca i64, align 8
  %19 = alloca i32, align 4
  store ptr %0, ptr %4, align 8, !tbaa !3
  store ptr %1, ptr %5, align 8, !tbaa !8
  store i64 %2, ptr %6, align 8, !tbaa !9
  call void @llvm.lifetime.start.p0(i64 8, ptr %7) #10
  %20 = load i64, ptr %6, align 8, !tbaa !9
  %21 = sdiv i64 %20, 256
  store i64 %21, ptr %7, align 8, !tbaa !9
  call void @llvm.lifetime.start.p0(i64 8, ptr %8) #10
  store i64 0, ptr %8, align 8, !tbaa !9
  br label %22

22:                                               ; preds = %128, %3
  %23 = load i64, ptr %8, align 8, !tbaa !9
  %24 = load i64, ptr %7, align 8, !tbaa !9
  %25 = icmp slt i64 %23, %24
  br i1 %25, label %27, label %26

26:                                               ; preds = %22
  store i32 2, ptr %9, align 4
  call void @llvm.lifetime.end.p0(i64 8, ptr %8) #10
  br label %131

27:                                               ; preds = %22
  call void @llvm.lifetime.start.p0(i64 4, ptr %10) #10
  store float 0.000000e+00, ptr %10, align 4, !tbaa !13
  call void @llvm.lifetime.start.p0(i64 4, ptr %11) #10
  store i32 0, ptr %11, align 4, !tbaa !11
  br label %28

28:                                               ; preds = %49, %27
  %29 = load i32, ptr %11, align 4, !tbaa !11
  %30 = icmp slt i32 %29, 256
  br i1 %30, label %32, label %31

31:                                               ; preds = %28
  store i32 5, ptr %9, align 4
  call void @llvm.lifetime.end.p0(i64 4, ptr %11) #10
  br label %52

32:                                               ; preds = %28
  call void @llvm.lifetime.start.p0(i64 4, ptr %12) #10
  %33 = load ptr, ptr %4, align 8, !tbaa !3
  %34 = load i32, ptr %11, align 4, !tbaa !11
  %35 = sext i32 %34 to i64
  %36 = getelementptr inbounds float, ptr %33, i64 %35
  %37 = load float, ptr %36, align 4, !tbaa !13
  store float %37, ptr %12, align 4, !tbaa !13
  %38 = load float, ptr %10, align 4, !tbaa !13
  %39 = load float, ptr %12, align 4, !tbaa !13
  %40 = call float @llvm.fabs.f32(float %39)
  %41 = fcmp ogt float %38, %40
  br i1 %41, label %42, label %44

42:                                               ; preds = %32
  %43 = load float, ptr %10, align 4, !tbaa !13
  br label %47

44:                                               ; preds = %32
  %45 = load float, ptr %12, align 4, !tbaa !13
  %46 = call float @llvm.fabs.f32(float %45)
  br label %47

47:                                               ; preds = %44, %42
  %48 = phi float [ %43, %42 ], [ %46, %44 ]
  store float %48, ptr %10, align 4, !tbaa !13
  call void @llvm.lifetime.end.p0(i64 4, ptr %12) #10
  br label %49

49:                                               ; preds = %47
  %50 = load i32, ptr %11, align 4, !tbaa !11
  %51 = add nsw i32 %50, 1
  store i32 %51, ptr %11, align 4, !tbaa !11
  br label %28, !llvm.loop !234

52:                                               ; preds = %31
  call void @llvm.lifetime.start.p0(i64 4, ptr %13) #10
  %53 = load float, ptr %10, align 4, !tbaa !13
  store float %53, ptr %13, align 4, !tbaa !13
  call void @llvm.lifetime.start.p0(i64 4, ptr %14) #10
  %54 = load float, ptr %13, align 4, !tbaa !13
  %55 = fcmp une float %54, 0.000000e+00
  br i1 %55, label %56, label %59

56:                                               ; preds = %52
  %57 = load float, ptr %13, align 4, !tbaa !13
  %58 = fdiv float 1.000000e+00, %57
  br label %60

59:                                               ; preds = %52
  br label %60

60:                                               ; preds = %59, %56
  %61 = phi float [ %58, %56 ], [ 0.000000e+00, %59 ]
  store float %61, ptr %14, align 4, !tbaa !13
  %62 = load float, ptr %13, align 4, !tbaa !13
  %63 = call zeroext i16 @ggml_compute_fp32_to_fp16(float noundef %62)
  %64 = load ptr, ptr %5, align 8, !tbaa !8
  %65 = load i64, ptr %8, align 8, !tbaa !9
  %66 = getelementptr inbounds %struct.block_tq2_0, ptr %64, i64 %65
  %67 = getelementptr inbounds nuw %struct.block_tq2_0, ptr %66, i32 0, i32 1
  store i16 %63, ptr %67, align 2, !tbaa !235
  call void @llvm.lifetime.start.p0(i64 8, ptr %15) #10
  store i64 0, ptr %15, align 8, !tbaa !9
  br label %68

68:                                               ; preds = %124, %60
  %69 = load i64, ptr %15, align 8, !tbaa !9
  %70 = icmp ult i64 %69, 64
  br i1 %70, label %72, label %71

71:                                               ; preds = %68
  store i32 8, ptr %9, align 4
  call void @llvm.lifetime.end.p0(i64 8, ptr %15) #10
  br label %127

72:                                               ; preds = %68
  call void @llvm.lifetime.start.p0(i64 8, ptr %16) #10
  store i64 0, ptr %16, align 8, !tbaa !9
  br label %73

73:                                               ; preds = %118, %72
  %74 = load i64, ptr %16, align 8, !tbaa !9
  %75 = icmp ult i64 %74, 32
  br i1 %75, label %77, label %76

76:                                               ; preds = %73
  store i32 11, ptr %9, align 4
  call void @llvm.lifetime.end.p0(i64 8, ptr %16) #10
  br label %121

77:                                               ; preds = %73
  call void @llvm.lifetime.start.p0(i64 1, ptr %17) #10
  store i8 0, ptr %17, align 1, !tbaa !20
  call void @llvm.lifetime.start.p0(i64 8, ptr %18) #10
  store i64 0, ptr %18, align 8, !tbaa !9
  br label %78

78:                                               ; preds = %105, %77
  %79 = load i64, ptr %18, align 8, !tbaa !9
  %80 = icmp ult i64 %79, 4
  br i1 %80, label %82, label %81

81:                                               ; preds = %78
  store i32 14, ptr %9, align 4
  call void @llvm.lifetime.end.p0(i64 8, ptr %18) #10
  br label %108

82:                                               ; preds = %78
  call void @llvm.lifetime.start.p0(i64 4, ptr %19) #10
  %83 = load ptr, ptr %4, align 8, !tbaa !3
  %84 = load i64, ptr %16, align 8, !tbaa !9
  %85 = load i64, ptr %18, align 8, !tbaa !9
  %86 = mul i64 %85, 32
  %87 = add i64 %84, %86
  %88 = getelementptr inbounds nuw float, ptr %83, i64 %87
  %89 = load float, ptr %88, align 4, !tbaa !13
  %90 = load float, ptr %14, align 4, !tbaa !13
  %91 = fmul float %89, %90
  %92 = call i64 @lroundf(float noundef %91) #10, !tbaa !11
  %93 = add nsw i64 %92, 1
  %94 = trunc i64 %93 to i32
  store i32 %94, ptr %19, align 4, !tbaa !11
  %95 = load i32, ptr %19, align 4, !tbaa !11
  %96 = and i32 %95, 3
  %97 = load i64, ptr %18, align 8, !tbaa !9
  %98 = mul i64 2, %97
  %99 = trunc i64 %98 to i32
  %100 = shl i32 %96, %99
  %101 = load i8, ptr %17, align 1, !tbaa !20
  %102 = zext i8 %101 to i32
  %103 = add nsw i32 %102, %100
  %104 = trunc i32 %103 to i8
  store i8 %104, ptr %17, align 1, !tbaa !20
  call void @llvm.lifetime.end.p0(i64 4, ptr %19) #10
  br label %105

105:                                              ; preds = %82
  %106 = load i64, ptr %18, align 8, !tbaa !9
  %107 = add i64 %106, 1
  store i64 %107, ptr %18, align 8, !tbaa !9
  br label %78, !llvm.loop !237

108:                                              ; preds = %81
  %109 = load i8, ptr %17, align 1, !tbaa !20
  %110 = load ptr, ptr %5, align 8, !tbaa !8
  %111 = load i64, ptr %8, align 8, !tbaa !9
  %112 = getelementptr inbounds %struct.block_tq2_0, ptr %110, i64 %111
  %113 = getelementptr inbounds nuw %struct.block_tq2_0, ptr %112, i32 0, i32 0
  %114 = load i64, ptr %15, align 8, !tbaa !9
  %115 = load i64, ptr %16, align 8, !tbaa !9
  %116 = add i64 %114, %115
  %117 = getelementptr inbounds nuw [64 x i8], ptr %113, i64 0, i64 %116
  store i8 %109, ptr %117, align 1, !tbaa !20
  call void @llvm.lifetime.end.p0(i64 1, ptr %17) #10
  br label %118

118:                                              ; preds = %108
  %119 = load i64, ptr %16, align 8, !tbaa !9
  %120 = add i64 %119, 1
  store i64 %120, ptr %16, align 8, !tbaa !9
  br label %73, !llvm.loop !238

121:                                              ; preds = %76
  %122 = load ptr, ptr %4, align 8, !tbaa !3
  %123 = getelementptr inbounds float, ptr %122, i64 128
  store ptr %123, ptr %4, align 8, !tbaa !3
  br label %124

124:                                              ; preds = %121
  %125 = load i64, ptr %15, align 8, !tbaa !9
  %126 = add i64 %125, 32
  store i64 %126, ptr %15, align 8, !tbaa !9
  br label %68, !llvm.loop !239

127:                                              ; preds = %71
  call void @llvm.lifetime.end.p0(i64 4, ptr %14) #10
  call void @llvm.lifetime.end.p0(i64 4, ptr %13) #10
  call void @llvm.lifetime.end.p0(i64 4, ptr %10) #10
  br label %128

128:                                              ; preds = %127
  %129 = load i64, ptr %8, align 8, !tbaa !9
  %130 = add nsw i64 %129, 1
  store i64 %130, ptr %8, align 8, !tbaa !9
  br label %22, !llvm.loop !240

131:                                              ; preds = %26
  call void @llvm.lifetime.end.p0(i64 8, ptr %7) #10
  ret void
}

; Function Attrs: nounwind uwtable
define i64 @quantize_tq2_0(ptr noalias noundef %0, ptr noalias noundef %1, i64 noundef %2, i64 noundef %3, ptr noundef %4) #0 {
  %6 = alloca ptr, align 8
  %7 = alloca ptr, align 8
  %8 = alloca i64, align 8
  %9 = alloca i64, align 8
  %10 = alloca ptr, align 8
  %11 = alloca i64, align 8
  store ptr %0, ptr %6, align 8, !tbaa !3
  store ptr %1, ptr %7, align 8, !tbaa !8
  store i64 %2, ptr %8, align 8, !tbaa !9
  store i64 %3, ptr %9, align 8, !tbaa !9
  store ptr %4, ptr %10, align 8, !tbaa !3
  call void @llvm.lifetime.start.p0(i64 8, ptr %11) #10
  %12 = load i64, ptr %9, align 8, !tbaa !9
  %13 = call i64 @ggml_row_size(i32 noundef 35, i64 noundef %12)
  store i64 %13, ptr %11, align 8, !tbaa !9
  %14 = load ptr, ptr %6, align 8, !tbaa !3
  %15 = load ptr, ptr %7, align 8, !tbaa !8
  %16 = load i64, ptr %8, align 8, !tbaa !9
  %17 = load i64, ptr %9, align 8, !tbaa !9
  %18 = mul nsw i64 %16, %17
  call void @quantize_row_tq2_0_ref(ptr noundef %14, ptr noundef %15, i64 noundef %18)
  %19 = load i64, ptr %8, align 8, !tbaa !9
  %20 = load i64, ptr %11, align 8, !tbaa !9
  %21 = mul i64 %19, %20
  call void @llvm.lifetime.end.p0(i64 8, ptr %11) #10
  ret i64 %21
}