; Function Attrs: nounwind uwtable
define i64 @quantize_tq2_0(ptr noalias noundef readonly captures(none) %0, ptr noalias noundef writeonly captures(none) %1, i64 noundef %2, i64 noundef %3, ptr noundef readnone captures(none) %4) local_unnamed_addr #6 {
  %6 = tail call i64 @ggml_row_size(i32 noundef 35, i64 noundef %3) #23
  %7 = mul nsw i64 %3, %2
  tail call void @llvm.experimental.noalias.scope.decl(metadata !610)
  tail call void @llvm.experimental.noalias.scope.decl(metadata !613)
  %8 = sdiv i64 %7, 256
  %9 = icmp sgt i64 %7, 255
  br i1 %9, label %.preheader44.i, label %quantize_row_tq2_0_ref.exit

.preheader44.i:                                   ; preds = %5, %40
  %.053.i = phi ptr [ %43, %40 ], [ %0, %5 ]
  %.04052.i = phi i64 [ %41, %40 ], [ 0, %5 ]
  br label %33

10:                                               ; preds = %33
  %11 = fcmp une float %38, 0.000000e+00
  %12 = fdiv float 1.000000e+00, %38
  %13 = select i1 %11, float %12, float 0.000000e+00
  %14 = fmul float %38, 0x46F0000000000000
  %15 = fmul float %14, 0x3910000000000000
  %16 = bitcast float %38 to i32
  %17 = shl nuw i32 %16, 1
  %18 = tail call i32 @llvm.umax.i32(i32 %17, i32 1895825408)
  %spec.store.select.i.i = lshr exact i32 %18, 1
  %19 = and i32 %spec.store.select.i.i, 2139095040
  %20 = add nuw i32 %19, 125829120
  %21 = bitcast i32 %20 to float
  %22 = fadd float %15, %21
  %23 = bitcast float %22 to i32
  %24 = lshr i32 %23, 13
  %25 = and i32 %24, 31744
  %26 = and i32 %23, 4095
  %27 = add nuw nsw i32 %25, %26
  %28 = icmp samesign ugt i32 %16, 2139095040
  %29 = trunc nuw i32 %27 to i16
  %30 = select i1 %28, i16 32256, i16 %29
  %31 = getelementptr inbounds nuw %struct.block_tq2_0, ptr %1, i64 %.04052.i
  %32 = getelementptr inbounds nuw i8, ptr %31, i64 64
  store i16 %30, ptr %32, align 2, !tbaa !603, !alias.scope !613, !noalias !610
  br label %.preheader43.i

33:                                               ; preds = %33, %.preheader44.i
  %indvars.iv.i = phi i64 [ 0, %.preheader44.i ], [ %indvars.iv.next.i, %33 ]
  %.04146.i = phi float [ 0.000000e+00, %.preheader44.i ], [ %38, %33 ]
  %34 = getelementptr inbounds nuw float, ptr %.053.i, i64 %indvars.iv.i
  %35 = load float, ptr %34, align 4, !tbaa !8, !alias.scope !610, !noalias !613
  %36 = tail call float @llvm.fabs.f32(float %35)
  %37 = fcmp ogt float %.04146.i, %36
  %38 = select i1 %37, float %.04146.i, float %36
  %indvars.iv.next.i = add nuw nsw i64 %indvars.iv.i, 1
  %exitcond.not.i = icmp eq i64 %indvars.iv.next.i, 256
  br i1 %exitcond.not.i, label %10, label %33, !llvm.loop !605

.preheader43.i:                                   ; preds = %42, %10
  %.151.i = phi ptr [ %.053.i, %10 ], [ %43, %42 ]
  %39 = phi i1 [ true, %10 ], [ false, %42 ]
  %.03950.i = phi i64 [ 0, %10 ], [ 32, %42 ]
  br label %.preheader.i

40:                                               ; preds = %42
  %41 = add nuw nsw i64 %.04052.i, 1
  %exitcond59.not.i = icmp eq i64 %41, %8
  br i1 %exitcond59.not.i, label %quantize_row_tq2_0_ref.exit, label %.preheader44.i, !llvm.loop !606

.preheader.i:                                     ; preds = %44, %.preheader43.i
  %.03849.i = phi i64 [ 0, %.preheader43.i ], [ %47, %44 ]
  %invariant.gep.i = getelementptr inbounds nuw float, ptr %.151.i, i64 %.03849.i
  br label %48

42:                                               ; preds = %44
  %43 = getelementptr inbounds nuw i8, ptr %.151.i, i64 512
  br i1 %39, label %.preheader43.i, label %40, !llvm.loop !607

44:                                               ; preds = %48
  %45 = or disjoint i64 %.03849.i, %.03950.i
  %46 = getelementptr inbounds nuw [64 x i8], ptr %31, i64 0, i64 %45
  store i8 %58, ptr %46, align 1, !tbaa !13, !alias.scope !613, !noalias !610
  %47 = add nuw nsw i64 %.03849.i, 1
  %exitcond58.not.i = icmp eq i64 %47, 32
  br i1 %exitcond58.not.i, label %42, label %.preheader.i, !llvm.loop !608

48:                                               ; preds = %48, %.preheader.i
  %.03648.i = phi i64 [ 0, %.preheader.i ], [ %59, %48 ]
  %.03747.i = phi i8 [ 0, %.preheader.i ], [ %58, %48 ]
  %.idx.i = shl nsw i64 %.03648.i, 7
  %gep.i = getelementptr inbounds nuw i8, ptr %invariant.gep.i, i64 %.idx.i
  %49 = load float, ptr %gep.i, align 4, !tbaa !8, !alias.scope !610, !noalias !613
  %50 = fmul float %13, %49
  %51 = tail call i64 @lroundf(float noundef %50) #23, !tbaa !90, !noalias !615
  %52 = trunc i64 %51 to i32
  %53 = add i32 %52, 1
  %54 = and i32 %53, 3
  %.036.tr.i = trunc nuw i64 %.03648.i to i32
  %55 = shl nuw nsw i32 %.036.tr.i, 1
  %56 = shl nuw nsw i32 %54, %55
  %57 = trunc nuw i32 %56 to i8
  %58 = add i8 %.03747.i, %57
  %59 = add nuw nsw i64 %.03648.i, 1
  %exitcond57.not.i = icmp eq i64 %59, 4
  br i1 %exitcond57.not.i, label %44, label %48, !llvm.loop !609

quantize_row_tq2_0_ref.exit:                      ; preds = %40, %5
  %60 = mul i64 %6, %2
  ret i64 %60
}